target datalayout = "e-m:e-p270:32:32-p271:32:32-p272:64:64-i64:64-i128:128-f80:128-n8:16:32:64-S128"
target triple = "x86_64-pc-linux-gnu"

@.str = private unnamed_addr constant [9 x i8] c"#EXTM3U\0A\00", align 1
@.str.1 = private unnamed_addr constant [19 x i8] c"#EXT-X-VERSION:%d\0A\00", align 1
@.str.4 = private unnamed_addr constant [4 x i8] c"YES\00", align 1
@.str.5 = private unnamed_addr constant [3 x i8] c"NO\00", align 1
@.str.22 = private unnamed_addr constant [23 x i8] c"#EXT-X-ALLOW-CACHE:%s\0A\00", align 1
@.str.23 = private unnamed_addr constant [26 x i8] c"#EXT-X-TARGETDURATION:%d\0A\00", align 1
@.str.24 = private unnamed_addr constant [27 x i8] c"#EXT-X-MEDIA-SEQUENCE:%ld\0A\00", align 1
@.str.25 = private unnamed_addr constant [26 x i8] c"EXT-X-MEDIA-SEQUENCE:%ld\0A\00", align 1
@.str.26 = private unnamed_addr constant [28 x i8] c"#EXT-X-PLAYLIST-TYPE:EVENT\0A\00", align 1
@.str.27 = private unnamed_addr constant [26 x i8] c"#EXT-X-PLAYLIST-TYPE:VOD\0A\00", align 1
@.str.28 = private unnamed_addr constant [22 x i8] c"#EXT-X-I-FRAMES-ONLY\0A\00", align 1

; Function Attrs: nounwind uwtable
define void @ff_hls_write_playlist_version(ptr noundef %0, i32 noundef %1) #0 {
  %3 = alloca ptr, align 8
  %4 = alloca i32, align 4
  store ptr %0, ptr %3, align 8, !tbaa !4
  store i32 %1, ptr %4, align 4, !tbaa !9
  %5 = load ptr, ptr %3, align 8, !tbaa !4
  %6 = icmp ne ptr %5, null
  br i1 %6, label %8, label %7

7:                                                ; preds = %2
  br label %14

8:                                                ; preds = %2
  %9 = load ptr, ptr %3, align 8, !tbaa !4
  %10 = call i32 (ptr, ptr, ...) @avio_printf(ptr noundef %9, ptr noundef @.str)
  %11 = load ptr, ptr %3, align 8, !tbaa !4
  %12 = load i32, ptr %4, align 4, !tbaa !9
  %13 = call i32 (ptr, ptr, ...) @avio_printf(ptr noundef %11, ptr noundef @.str.1, i32 noundef %12)
  br label %14

14:                                               ; preds = %8, %7
  ret void
}

; Function Attrs: nounwind uwtable
define void @ff_hls_write_playlist_header(ptr noundef %0, i32 noundef %1, i32 noundef %2, i32 noundef %3, i64 noundef %4, i32 noundef %5, i32 noundef %6) #0 {
  %8 = alloca ptr, align 8
  %9 = alloca i32, align 4
  %10 = alloca i32, align 4
  %11 = alloca i32, align 4
  %12 = alloca i64, align 8
  %13 = alloca i32, align 4
  %14 = alloca i32, align 4
  store ptr %0, ptr %8, align 8, !tbaa !4
  store i32 %1, ptr %9, align 4, !tbaa !9
  store i32 %2, ptr %10, align 4, !tbaa !9
  store i32 %3, ptr %11, align 4, !tbaa !9
  store i64 %4, ptr %12, align 8, !tbaa !30
  store i32 %5, ptr %13, align 4, !tbaa !9
  store i32 %6, ptr %14, align 4, !tbaa !9
  %15 = load ptr, ptr %8, align 8, !tbaa !4
  %16 = icmp ne ptr %15, null
  br i1 %16, label %18, label %17

17:                                               ; preds = %7
  br label %58

18:                                               ; preds = %7
  %19 = load ptr, ptr %8, align 8, !tbaa !4
  %20 = load i32, ptr %9, align 4, !tbaa !9
  call void @ff_hls_write_playlist_version(ptr noundef %19, i32 noundef %20)
  %21 = load i32, ptr %10, align 4, !tbaa !9
  %22 = icmp eq i32 %21, 0
  br i1 %22, label %26, label %23

23:                                               ; preds = %18
  %24 = load i32, ptr %10, align 4, !tbaa !9
  %25 = icmp eq i32 %24, 1
  br i1 %25, label %26, label %32

26:                                               ; preds = %23, %18
  %27 = load ptr, ptr %8, align 8, !tbaa !4
  %28 = load i32, ptr %10, align 4, !tbaa !9
  %29 = icmp eq i32 %28, 0
  %30 = select i1 %29, ptr @.str.5, ptr @.str.4
  %31 = call i32 (ptr, ptr, ...) @avio_printf(ptr noundef %27, ptr noundef @.str.22, ptr noundef %30)
  br label %32

32:                                               ; preds = %26, %23
  %33 = load ptr, ptr %8, align 8, !tbaa !4
  %34 = load i32, ptr %11, align 4, !tbaa !9
  %35 = call i32 (ptr, ptr, ...) @avio_printf(ptr noundef %33, ptr noundef @.str.23, i32 noundef %34)
  %36 = load ptr, ptr %8, align 8, !tbaa !4
  %37 = load i64, ptr %12, align 8, !tbaa !30
  %38 = call i32 (ptr, ptr, ...) @avio_printf(ptr noundef %36, ptr noundef @.str.24, i64 noundef %37)
  %39 = load i64, ptr %12, align 8, !tbaa !30
  call void (ptr, i32, ptr, ...) @av_log(ptr noundef null, i32 noundef 40, ptr noundef @.str.25, i64 noundef %39)
  %40 = load i32, ptr %13, align 4, !tbaa !9
  %41 = icmp eq i32 %40, 1
  br i1 %41, label %42, label %45

42:                                               ; preds = %32
  %43 = load ptr, ptr %8, align 8, !tbaa !4
  %44 = call i32 (ptr, ptr, ...) @avio_printf(ptr noundef %43, ptr noundef @.str.26)
  br label %52

45:                                               ; preds = %32
  %46 = load i32, ptr %13, align 4, !tbaa !9
  %47 = icmp eq i32 %46, 2
  br i1 %47, label %48, label %51

48:                                               ; preds = %45
  %49 = load ptr, ptr %8, align 8, !tbaa !4
  %50 = call i32 (ptr, ptr, ...) @avio_printf(ptr noundef %49, ptr noundef @.str.27)
  br label %51

51:                                               ; preds = %48, %45
  br label %52

52:                                               ; preds = %51, %42
  %53 = load i32, ptr %14, align 4, !tbaa !9
  %54 = icmp ne i32 %53, 0
  br i1 %54, label %55, label %58

55:                                               ; preds = %52
  %56 = load ptr, ptr %8, align 8, !tbaa !4
  %57 = call i32 (ptr, ptr, ...) @avio_printf(ptr noundef %56, ptr noundef @.str.28)
  br label %58

58:                                               ; preds = %17, %55, %52
  ret void
}