; Function Attrs: nounwind uwtable
define void @ff_hls_write_playlist_header(ptr noundef %0, i32 noundef %1, i32 noundef %2, i32 noundef %3, i64 noundef %4, i32 noundef %5, i32 noundef %6) local_unnamed_addr #0 {
  %.not = icmp eq ptr %0, null
  br i1 %.not, label %22, label %ff_hls_write_playlist_version.exit

ff_hls_write_playlist_version.exit:               ; preds = %7
  %8 = tail call i32 (ptr, ptr, ...) @avio_printf(ptr noundef nonnull %0, ptr noundef nonnull @.str) #8
  %9 = tail call i32 (ptr, ptr, ...) @avio_printf(ptr noundef nonnull %0, ptr noundef nonnull @.str.1, i32 noundef %1) #8
  %or.cond = icmp ult i32 %2, 2
  br i1 %or.cond, label %10, label %14

10:                                               ; preds = %ff_hls_write_playlist_version.exit
  %11 = icmp eq i32 %2, 0
  %12 = select i1 %11, ptr @.str.5, ptr @.str.4
  %13 = tail call i32 (ptr, ptr, ...) @avio_printf(ptr noundef nonnull %0, ptr noundef nonnull @.str.22, ptr noundef nonnull %12) #8
  br label %14

14:                                               ; preds = %ff_hls_write_playlist_version.exit, %10
  %15 = tail call i32 (ptr, ptr, ...) @avio_printf(ptr noundef nonnull %0, ptr noundef nonnull @.str.23, i32 noundef %3) #8
  %16 = tail call i32 (ptr, ptr, ...) @avio_printf(ptr noundef nonnull %0, ptr noundef nonnull @.str.24, i64 noundef %4) #8
  tail call void (ptr, i32, ptr, ...) @av_log(ptr noundef null, i32 noundef 40, ptr noundef nonnull @.str.25, i64 noundef %4) #8
  switch i32 %5, label %19 [
    i32 1, label %.sink.split
    i32 2, label %17
  ]

17:                                               ; preds = %14
  br label %.sink.split

.sink.split:                                      ; preds = %14, %17
  %.str.27.sink = phi ptr [ @.str.27, %17 ], [ @.str.26, %14 ]
  %18 = tail call i32 (ptr, ptr, ...) @avio_printf(ptr noundef nonnull %0, ptr noundef nonnull %.str.27.sink) #8
  br label %19

19:                                               ; preds = %.sink.split, %14
  %.not19 = icmp eq i32 %6, 0
  br i1 %.not19, label %22, label %20

20:                                               ; preds = %19
  %21 = tail call i32 (ptr, ptr, ...) @avio_printf(ptr noundef nonnull %0, ptr noundef nonnull @.str.28) #8
  br label %22

22:                                               ; preds = %7, %20, %19
  ret void
}